target datalayout = "e-m:e-p270:32:32-p271:32:32-p272:64:64-i64:64-i128:128-f80:128-n8:16:32:64-S128"
target triple = "x86_64-unknown-linux-gnu"

%"class.rocksdb::(anonymous namespace)::VectorRep" = type { %"class.rocksdb::MemTableRep", %"class.std::shared_ptr", %"class.rocksdb::port::RWMutex", i8, i8, ptr }
%"class.rocksdb::MemTableRep" = type { ptr, ptr }
%"class.std::shared_ptr" = type { %"class.std::__shared_ptr" }
%"class.std::__shared_ptr" = type { ptr, %"class.std::__shared_count" }
%"class.std::__shared_count" = type { ptr }
%"class.rocksdb::port::RWMutex" = type { %union.pthread_rwlock_t }
%union.pthread_rwlock_t = type { %struct.__pthread_rwlock_arch_t }
%struct.__pthread_rwlock_arch_t = type { i32, i32, i32, i32, i32, i32, i32, i32, i8, [7 x i8], i64, i32 }
%"class.rocksdb::WriteLock" = type { ptr }

; Function Attrs: mustprogress nounwind uwtable
define linkonce_odr void @_ZN7rocksdb9WriteLockD2Ev(ptr noundef nonnull align 8 dereferenceable(8) %this) unnamed_addr #1 comdat align 2 personality ptr @__gxx_personality_v0 {
entry:
  %this.addr = alloca ptr, align 8
  store ptr %this, ptr %this.addr, align 8
  %this1 = load ptr, ptr %this.addr, align 8
  %mu_ = getelementptr inbounds %"class.rocksdb::WriteLock", ptr %this1, i32 0, i32 0
  %0 = load ptr, ptr %mu_, align 8
  invoke void @_ZN7rocksdb4port7RWMutex11WriteUnlockEv(ptr noundef nonnull align 8 dereferenceable(56) %0)
          to label %invoke.cont unwind label %terminate.lpad

invoke.cont:                                      ; preds = %entry
  ret void

terminate.lpad:                                   ; preds = %entry
  %1 = landingpad { ptr, i32 }
          catch ptr null
  %2 = extractvalue { ptr, i32 } %1, 0
  call void @__clang_call_terminate(ptr %2) #16
  unreachable
}

; Function Attrs: mustprogress uwtable
define linkonce_odr void @_ZN7rocksdb9WriteLockC2EPNS_4port7RWMutexE(ptr noundef nonnull align 8 dereferenceable(8) %this, ptr noundef %mu) unnamed_addr #0 comdat align 2 {
entry:
  %this.addr = alloca ptr, align 8
  %mu.addr = alloca ptr, align 8
  store ptr %this, ptr %this.addr, align 8
  store ptr %mu, ptr %mu.addr, align 8
  %this1 = load ptr, ptr %this.addr, align 8
  %mu_ = getelementptr inbounds %"class.rocksdb::WriteLock", ptr %this1, i32 0, i32 0
  %0 = load ptr, ptr %mu.addr, align 8
  store ptr %0, ptr %mu_, align 8
  %mu_2 = getelementptr inbounds %"class.rocksdb::WriteLock", ptr %this1, i32 0, i32 0
  %1 = load ptr, ptr %mu_2, align 8
  call void @_ZN7rocksdb4port7RWMutex9WriteLockEv(ptr noundef nonnull align 8 dereferenceable(56) %1)
  ret void
}

; Function Attrs: mustprogress uwtable
define internal void @_ZN7rocksdb12_GLOBAL__N_19VectorRep12MarkReadOnlyEv(ptr noundef nonnull align 8 dereferenceable(104) %this) unnamed_addr #0 align 2 {
entry:
  %this.addr = alloca ptr, align 8
  %l = alloca %"class.rocksdb::WriteLock", align 8
  store ptr %this, ptr %this.addr, align 8
  %this1 = load ptr, ptr %this.addr, align 8
  %rwlock_ = getelementptr inbounds %"class.rocksdb::(anonymous namespace)::VectorRep", ptr %this1, i32 0, i32 2
  call void @_ZN7rocksdb9WriteLockC2EPNS_4port7RWMutexE(ptr noundef nonnull align 8 dereferenceable(8) %l, ptr noundef %rwlock_)
  %immutable_ = getelementptr inbounds %"class.rocksdb::(anonymous namespace)::VectorRep", ptr %this1, i32 0, i32 3
  store i8 1, ptr %immutable_, align 8
  call void @_ZN7rocksdb9WriteLockD2Ev(ptr noundef nonnull align 8 dereferenceable(8) %l) #3
  ret void
}