; Function Attrs: mustprogress uwtable
define internal void @_ZN7rocksdb12_GLOBAL__N_19VectorRep12MarkReadOnlyEv(ptr noundef nonnull align 8 dereferenceable(104) %this) unnamed_addr #3 align 2 personality ptr @__gxx_personality_v0 {
entry:
  %rwlock_ = getelementptr inbounds i8, ptr %this, i64 32
  tail call void @_ZN7rocksdb4port7RWMutex9WriteLockEv(ptr noundef nonnull align 8 dereferenceable(56) %rwlock_)
  %immutable_ = getelementptr inbounds i8, ptr %this, i64 88
  store i8 1, ptr %immutable_, align 8
  invoke void @_ZN7rocksdb4port7RWMutex11WriteUnlockEv(ptr noundef nonnull align 8 dereferenceable(56) %rwlock_)
          to label %_ZN7rocksdb9WriteLockD2Ev.exit unwind label %terminate.lpad.i

terminate.lpad.i:                                 ; preds = %entry
  %0 = landingpad { ptr, i32 }
          catch ptr null
  %1 = extractvalue { ptr, i32 } %0, 0
  tail call void @__clang_call_terminate(ptr %1) #21
  unreachable

_ZN7rocksdb9WriteLockD2Ev.exit:                   ; preds = %entry
  ret void
}